; Function Attrs: mustprogress nofree norecurse nosync nounwind memory(argmem: readwrite) uwtable
define internal fastcc void @_ZN5Eigen8internal6ColamdL14order_childrenIiEEvT_PNS1_12ColStructureIS3_EEPS3_(i32 noundef %0, ptr nocapture noundef %1, ptr nocapture noundef writeonly %2) unnamed_addr #22 {
  %4 = icmp sgt i32 %0, 0
  br i1 %4, label %.lr.ph.preheader, label %._crit_edge

.lr.ph.preheader:                                 ; preds = %3
  %wide.trip.count = zext nneg i32 %0 to i64
  br label %.lr.ph

.preheader:                                       ; preds = %32
  br i1 %4, label %.lr.ph43.preheader, label %._crit_edge

.lr.ph43.preheader:                               ; preds = %.preheader
  %wide.trip.count50 = zext nneg i32 %0 to i64
  br label %.lr.ph43

.lr.ph:                                           ; preds = %.lr.ph.preheader, %32
  %indvars.iv = phi i64 [ 0, %.lr.ph.preheader ], [ %indvars.iv.next, %32 ]
  %5 = getelementptr inbounds %"struct.Eigen::internal::Colamd::ColStructure", ptr %1, i64 %indvars.iv
  %6 = load i32, ptr %5, align 4
  %7 = icmp eq i32 %6, -1
  br i1 %7, label %32, label %8

8:                                                ; preds = %.lr.ph
  %9 = getelementptr inbounds i8, ptr %5, i64 12
  %10 = load i32, ptr %9, align 4
  %11 = icmp eq i32 %10, -1
  br i1 %11, label %.preheader38.preheader, label %32

.preheader38.preheader:                           ; preds = %8
  %12 = trunc i64 %indvars.iv to i32
  br label %.preheader38

.preheader38:                                     ; preds = %.preheader38.preheader, %.preheader38
  %.034 = phi i32 [ %15, %.preheader38 ], [ %12, %.preheader38.preheader ]
  %13 = sext i32 %.034 to i64
  %14 = getelementptr inbounds %"struct.Eigen::internal::Colamd::ColStructure", ptr %1, i64 %13, i32 2
  %15 = load i32, ptr %14, align 4
  %16 = sext i32 %15 to i64
  %17 = getelementptr inbounds %"struct.Eigen::internal::Colamd::ColStructure", ptr %1, i64 %16
  %18 = load i32, ptr %17, align 4
  %19 = icmp eq i32 %18, -1
  br i1 %19, label %20, label %.preheader38, !llvm.loop !1220

20:                                               ; preds = %.preheader38
  %21 = getelementptr inbounds i8, ptr %17, i64 12
  %22 = load i32, ptr %21, align 4
  br label %23

23:                                               ; preds = %23, %20
  %.035 = phi i32 [ %12, %20 ], [ %15, %23 ]
  %.0 = phi i32 [ %22, %20 ], [ %24, %23 ]
  %24 = add nsw i32 %.0, 1
  %25 = sext i32 %.035 to i64
  %26 = getelementptr inbounds %"struct.Eigen::internal::Colamd::ColStructure", ptr %1, i64 %25
  %27 = getelementptr inbounds i8, ptr %26, i64 12
  store i32 %.0, ptr %27, align 4
  %28 = getelementptr inbounds i8, ptr %26, i64 8
  store i32 %15, ptr %28, align 4
  %29 = load i32, ptr %21, align 4
  %30 = icmp eq i32 %29, -1
  br i1 %30, label %23, label %31, !llvm.loop !1221

31:                                               ; preds = %23
  store i32 %24, ptr %21, align 4
  br label %32

32:                                               ; preds = %.lr.ph, %8, %31
  %indvars.iv.next = add nuw nsw i64 %indvars.iv, 1
  %exitcond.not = icmp eq i64 %indvars.iv.next, %wide.trip.count
  br i1 %exitcond.not, label %.preheader, label %.lr.ph, !llvm.loop !1222

.lr.ph43:                                         ; preds = %.lr.ph43.preheader, %.lr.ph43
  %indvars.iv47 = phi i64 [ 0, %.lr.ph43.preheader ], [ %indvars.iv.next48, %.lr.ph43 ]
  %33 = getelementptr inbounds %"struct.Eigen::internal::Colamd::ColStructure", ptr %1, i64 %indvars.iv47, i32 3
  %34 = load i32, ptr %33, align 4
  %35 = sext i32 %34 to i64
  %36 = getelementptr inbounds i32, ptr %2, i64 %35
  %37 = trunc i64 %indvars.iv47 to i32
  store i32 %37, ptr %36, align 4
  %indvars.iv.next48 = add nuw nsw i64 %indvars.iv47, 1
  %exitcond51.not = icmp eq i64 %indvars.iv.next48, %wide.trip.count50
  br i1 %exitcond51.not, label %._crit_edge, label %.lr.ph43, !llvm.loop !1223

._crit_edge:                                      ; preds = %.lr.ph43, %3, %.preheader
  ret void
}